; Function Attrs: mustprogress uwtable
define void @_ZNK8QuantLib20GeneralizedHullWhite5speedEv(ptr dead_on_unwind noalias nocapture writable writeonly sret(%"class.std::function") align 8 %agg.result, ptr nocapture noundef nonnull readonly align 8 dereferenceable(400) %this) local_unnamed_addr #6 align 2 personality ptr @__gxx_personality_v0 {
entry:
  %0 = getelementptr inbounds i8, ptr %agg.result, i64 8
  store i64 0, ptr %0, align 8
  %call.i.i2.i = tail call noalias noundef nonnull dereferenceable(32) ptr @_Znwm(i64 noundef 32) #31
  %extrapolate_.i.i.i.i.i = getelementptr inbounds nuw i8, ptr %call.i.i2.i, i64 8
  %extrapolate_2.i.i.i.i.i = getelementptr inbounds nuw i8, ptr %this, i64 216
  %1 = load i8, ptr %extrapolate_2.i.i.i.i.i, align 8, !tbaa !48, !range !26, !noundef !27
  store i8 %1, ptr %extrapolate_.i.i.i.i.i, align 8, !tbaa !48
  store ptr getelementptr inbounds inrange(-16, 16) (i8, ptr @_ZTVN8QuantLib13InterpolationE, i64 16), ptr %call.i.i2.i, align 8, !tbaa !35
  %impl_.i.i.i.i = getelementptr inbounds nuw i8, ptr %call.i.i2.i, i64 16
  %impl_2.i.i.i.i = getelementptr inbounds nuw i8, ptr %this, i64 224
  %2 = load ptr, ptr %impl_2.i.i.i.i, align 8, !tbaa !102
  store ptr %2, ptr %impl_.i.i.i.i, align 8, !tbaa !102
  %pn.i.i.i.i.i = getelementptr inbounds nuw i8, ptr %call.i.i2.i, i64 24
  %pn3.i.i.i.i.i = getelementptr inbounds nuw i8, ptr %this, i64 232
  %3 = load ptr, ptr %pn3.i.i.i.i.i, align 8, !tbaa !37
  store ptr %3, ptr %pn.i.i.i.i.i, align 8, !tbaa !37
  %cmp.not.i.i.i.i.i.i = icmp eq ptr %3, null
  br i1 %cmp.not.i.i.i.i.i.i, label %_ZNSt8functionIFddEEC2IRKN8QuantLib13InterpolationEvEEOT_.exit, label %if.then.i.i.i.i.i.i

if.then.i.i.i.i.i.i:                              ; preds = %entry
  %use_count_.i.i.i.i.i.i.i = getelementptr inbounds nuw i8, ptr %3, i64 8
  %4 = atomicrmw add ptr %use_count_.i.i.i.i.i.i.i, i32 1 monotonic, align 4
  br label %_ZNSt8functionIFddEEC2IRKN8QuantLib13InterpolationEvEEOT_.exit

_ZNSt8functionIFddEEC2IRKN8QuantLib13InterpolationEvEEOT_.exit: ; preds = %entry, %if.then.i.i.i.i.i.i
  %_M_invoker.i = getelementptr inbounds nuw i8, ptr %agg.result, i64 24
  %_M_manager.i.i = getelementptr inbounds nuw i8, ptr %agg.result, i64 16
  store ptr %call.i.i2.i, ptr %agg.result, align 8, !tbaa !3
  store ptr @_ZNSt17_Function_handlerIFddEN8QuantLib13InterpolationEE9_M_invokeERKSt9_Any_dataOd, ptr %_M_invoker.i, align 8, !tbaa !56
  store ptr @_ZNSt17_Function_handlerIFddEN8QuantLib13InterpolationEE10_M_managerERSt9_Any_dataRKS4_St18_Manager_operation, ptr %_M_manager.i.i, align 8, !tbaa !54
  ret void
}